target datalayout = "e-m:e-p270:32:32-p271:32:32-p272:64:64-i64:64-i128:128-f80:128-n8:16:32:64-S128"
target triple = "x86_64-pc-linux-gnu"

%"class.std::__cxx11::basic_string" = type { %"struct.std::__cxx11::basic_string<char>::_Alloc_hider", i64, %union.anon }
%"struct.std::__cxx11::basic_string<char>::_Alloc_hider" = type { ptr }
%union.anon = type { i64, [8 x i8] }
%"class.std::vector.21" = type { %"struct.std::_Vector_base.22" }
%"struct.std::_Vector_base.22" = type { %"struct.std::_Vector_base<char *, std::allocator<char *>>::_Vector_impl" }
%"struct.std::_Vector_base<char *, std::allocator<char *>>::_Vector_impl" = type { %"struct.std::_Vector_base<char *, std::allocator<char *>>::_Vector_impl_data" }
%"struct.std::_Vector_base<char *, std::allocator<char *>>::_Vector_impl_data" = type { ptr, ptr, ptr }
%"struct.Yosys::RTLIL::IdString" = type { i32 }
%"class.std::allocator.13" = type { i8 }

@_ZN5Yosys5RTLIL8IdString18global_id_storage_E = external global %"class.std::vector.21", align 8
@.str.7 = private unnamed_addr constant [74 x i8] c"vector::_M_range_check: __n (which is %zu) >= this->size() (which is %zu)\00", align 1
@.str.182 = private unnamed_addr constant [2 x i8] c"$\00", align 1
@.str.183 = private unnamed_addr constant [3 x i8] c"\\_\00", align 1
@.str.184 = private unnamed_addr constant [2 x i8] c"_\00", align 1
@.str.185 = private unnamed_addr constant [3 x i8] c"_[\00", align 1
@.str.186 = private unnamed_addr constant [3 x i8] c".$\00", align 1

; Function Attrs: mustprogress nounwind uwtable
define linkonce_odr noundef i64 @_ZNKSt6vectorIPcSaIS0_EE4sizeEv(ptr noundef nonnull align 8 dereferenceable(24) %0) #5 comdat align 2 {
  %2 = alloca ptr, align 8
  store ptr %0, ptr %2, align 8
  %3 = load ptr, ptr %2, align 8
  %4 = getelementptr inbounds %"struct.std::_Vector_base.22", ptr %3, i32 0, i32 0
  %5 = getelementptr inbounds %"struct.std::_Vector_base<char *, std::allocator<char *>>::_Vector_impl_data", ptr %4, i32 0, i32 1
  %6 = load ptr, ptr %5, align 8
  %7 = getelementptr inbounds %"struct.std::_Vector_base.22", ptr %3, i32 0, i32 0
  %8 = getelementptr inbounds %"struct.std::_Vector_base<char *, std::allocator<char *>>::_Vector_impl_data", ptr %7, i32 0, i32 0
  %9 = load ptr, ptr %8, align 8
  %10 = ptrtoint ptr %6 to i64
  %11 = ptrtoint ptr %9 to i64
  %12 = sub i64 %10, %11
  %13 = sdiv exact i64 %12, 8
  ret i64 %13
}

; Function Attrs: mustprogress nounwind uwtable
define linkonce_odr noundef nonnull align 8 dereferenceable(8) ptr @_ZNSt6vectorIPcSaIS0_EEixEm(ptr noundef nonnull align 8 dereferenceable(24) %0, i64 noundef %1) #5 comdat align 2 {
  %3 = alloca ptr, align 8
  %4 = alloca i64, align 8
  store ptr %0, ptr %3, align 8
  store i64 %1, ptr %4, align 8
  %5 = load ptr, ptr %3, align 8
  %6 = getelementptr inbounds %"struct.std::_Vector_base.22", ptr %5, i32 0, i32 0
  %7 = getelementptr inbounds %"struct.std::_Vector_base<char *, std::allocator<char *>>::_Vector_impl_data", ptr %6, i32 0, i32 0
  %8 = load ptr, ptr %7, align 8
  %9 = load i64, ptr %4, align 8
  %10 = getelementptr inbounds ptr, ptr %8, i64 %9
  ret ptr %10
}

; Function Attrs: mustprogress uwtable
define linkonce_odr void @_ZNKSt6vectorIPcSaIS0_EE14_M_range_checkEm(ptr noundef nonnull align 8 dereferenceable(24) %0, i64 noundef %1) #4 comdat align 2 {
  %3 = alloca ptr, align 8
  %4 = alloca i64, align 8
  store ptr %0, ptr %3, align 8
  store i64 %1, ptr %4, align 8
  %5 = load ptr, ptr %3, align 8
  %6 = load i64, ptr %4, align 8
  %7 = call noundef i64 @_ZNKSt6vectorIPcSaIS0_EE4sizeEv(ptr noundef nonnull align 8 dereferenceable(24) %5) #3
  %8 = icmp uge i64 %6, %7
  br i1 %8, label %9, label %12

9:                                                ; preds = %2
  %10 = load i64, ptr %4, align 8
  %11 = call noundef i64 @_ZNKSt6vectorIPcSaIS0_EE4sizeEv(ptr noundef nonnull align 8 dereferenceable(24) %5) #3
  call void (ptr, ...) @_ZSt24__throw_out_of_range_fmtPKcz(ptr noundef @.str.7, i64 noundef %10, i64 noundef %11) #18
  unreachable

12:                                               ; preds = %2
  ret void
}

; Function Attrs: mustprogress uwtable
define linkonce_odr noundef ptr @_ZNK5Yosys5RTLIL8IdString5c_strEv(ptr noundef nonnull align 4 dereferenceable(4) %0) #4 comdat align 2 {
  %2 = alloca ptr, align 8
  store ptr %0, ptr %2, align 8
  %3 = load ptr, ptr %2, align 8
  %4 = getelementptr inbounds %"struct.Yosys::RTLIL::IdString", ptr %3, i32 0, i32 0
  %5 = load i32, ptr %4, align 4
  %6 = sext i32 %5 to i64
  %7 = call noundef nonnull align 8 dereferenceable(8) ptr @_ZNSt6vectorIPcSaIS0_EE2atEm(ptr noundef nonnull align 8 dereferenceable(24) @_ZN5Yosys5RTLIL8IdString18global_id_storage_E, i64 noundef %6)
  %8 = load ptr, ptr %7, align 8
  ret ptr %8
}

; Function Attrs: mustprogress uwtable
define linkonce_odr noundef nonnull align 8 dereferenceable(8) ptr @_ZNSt6vectorIPcSaIS0_EE2atEm(ptr noundef nonnull align 8 dereferenceable(24) %0, i64 noundef %1) #4 comdat align 2 {
  %3 = alloca ptr, align 8
  %4 = alloca i64, align 8
  store ptr %0, ptr %3, align 8
  store i64 %1, ptr %4, align 8
  %5 = load ptr, ptr %3, align 8
  %6 = load i64, ptr %4, align 8
  call void @_ZNKSt6vectorIPcSaIS0_EE14_M_range_checkEm(ptr noundef nonnull align 8 dereferenceable(24) %5, i64 noundef %6)
  %7 = load i64, ptr %4, align 8
  %8 = call noundef nonnull align 8 dereferenceable(8) ptr @_ZNSt6vectorIPcSaIS0_EEixEm(ptr noundef nonnull align 8 dereferenceable(24) %5, i64 noundef %7) #3
  ret ptr %8
}

; Function Attrs: mustprogress uwtable
define linkonce_odr noundef i32 @_ZNK5Yosys5RTLIL8IdString7compareEmmPKc(ptr noundef nonnull align 4 dereferenceable(4) %0, i64 noundef %1, i64 noundef %2, ptr noundef %3) #4 comdat align 2 {
  %5 = alloca ptr, align 8
  %6 = alloca i64, align 8
  %7 = alloca i64, align 8
  %8 = alloca ptr, align 8
  store ptr %0, ptr %5, align 8
  store i64 %1, ptr %6, align 8
  store i64 %2, ptr %7, align 8
  store ptr %3, ptr %8, align 8
  %9 = load ptr, ptr %5, align 8
  %10 = call noundef ptr @_ZNK5Yosys5RTLIL8IdString5c_strEv(ptr noundef nonnull align 4 dereferenceable(4) %9)
  %11 = load i64, ptr %6, align 8
  %12 = getelementptr inbounds i8, ptr %10, i64 %11
  %13 = load ptr, ptr %8, align 8
  %14 = load i64, ptr %7, align 8
  %15 = call i32 @strncmp(ptr noundef %12, ptr noundef %13, i64 noundef %14) #20
  ret i32 %15
}

; Function Attrs: mustprogress uwtable
define linkonce_odr noundef i64 @_ZNK5Yosys5RTLIL8IdString4sizeEv(ptr noundef nonnull align 4 dereferenceable(4) %0) #4 comdat align 2 {
  %2 = alloca ptr, align 8
  store ptr %0, ptr %2, align 8
  %3 = load ptr, ptr %2, align 8
  %4 = call noundef ptr @_ZNK5Yosys5RTLIL8IdString5c_strEv(ptr noundef nonnull align 4 dereferenceable(4) %3)
  %5 = call i64 @strlen(ptr noundef %4) #20
  ret i64 %5
}

; Function Attrs: mustprogress uwtable
define linkonce_odr noundef zeroext i1 @_ZNK5Yosys5RTLIL8IdString9ends_withEPKc(ptr noundef nonnull align 4 dereferenceable(4) %0, ptr noundef %1) #4 comdat align 2 {
  %3 = alloca i1, align 1
  %4 = alloca ptr, align 8
  %5 = alloca ptr, align 8
  %6 = alloca i64, align 8
  store ptr %0, ptr %4, align 8
  store ptr %1, ptr %5, align 8
  %7 = load ptr, ptr %4, align 8
  %8 = load ptr, ptr %5, align 8
  %9 = call i64 @strlen(ptr noundef %8) #20
  store i64 %9, ptr %6, align 8
  %10 = call noundef i64 @_ZNK5Yosys5RTLIL8IdString4sizeEv(ptr noundef nonnull align 4 dereferenceable(4) %7)
  %11 = load i64, ptr %6, align 8
  %12 = icmp ult i64 %10, %11
  br i1 %12, label %13, label %14

13:                                               ; preds = %2
  store i1 false, ptr %3, align 1
  br label %22

14:                                               ; preds = %2
  %15 = call noundef i64 @_ZNK5Yosys5RTLIL8IdString4sizeEv(ptr noundef nonnull align 4 dereferenceable(4) %7)
  %16 = load i64, ptr %6, align 8
  %17 = sub i64 %15, %16
  %18 = load i64, ptr %6, align 8
  %19 = load ptr, ptr %5, align 8
  %20 = call noundef i32 @_ZNK5Yosys5RTLIL8IdString7compareEmmPKc(ptr noundef nonnull align 4 dereferenceable(4) %7, i64 noundef %17, i64 noundef %18, ptr noundef %19)
  %21 = icmp eq i32 %20, 0
  store i1 %21, ptr %3, align 1
  br label %22

22:                                               ; preds = %14, %13
  %23 = load i1, ptr %3, align 1
  ret i1 %23
}

; Function Attrs: mustprogress uwtable
define linkonce_odr void @_ZNK5Yosys5RTLIL8IdString3strB5cxx11Ev(ptr dead_on_unwind noalias writable sret(%"class.std::__cxx11::basic_string") align 8 %0, ptr noundef nonnull align 4 dereferenceable(4) %1) #4 comdat align 2 personality ptr @__gxx_personality_v0 {
  %3 = alloca ptr, align 8
  %4 = alloca ptr, align 8
  %5 = alloca %"class.std::allocator.13", align 1
  %6 = alloca ptr, align 8
  %7 = alloca i32, align 4
  store ptr %0, ptr %3, align 8
  store ptr %1, ptr %4, align 8
  %8 = load ptr, ptr %4, align 8
  %9 = getelementptr inbounds %"struct.Yosys::RTLIL::IdString", ptr %8, i32 0, i32 0
  %10 = load i32, ptr %9, align 4
  %11 = sext i32 %10 to i64
  %12 = call noundef nonnull align 8 dereferenceable(8) ptr @_ZNSt6vectorIPcSaIS0_EE2atEm(ptr noundef nonnull align 8 dereferenceable(24) @_ZN5Yosys5RTLIL8IdString18global_id_storage_E, i64 noundef %11)
  %13 = load ptr, ptr %12, align 8
  call void @_ZNSaIcEC1Ev(ptr noundef nonnull align 1 dereferenceable(1) %5) #3
  invoke void @_ZNSt7__cxx1112basic_stringIcSt11char_traitsIcESaIcEEC1EPKcRKS3_(ptr noundef nonnull align 8 dereferenceable(32) %0, ptr noundef %13, ptr noundef nonnull align 1 dereferenceable(1) %5)
          to label %14 unwind label %15

14:                                               ; preds = %2
  call void @_ZNSaIcED1Ev(ptr noundef nonnull align 1 dereferenceable(1) %5) #3
  ret void

15:                                               ; preds = %2
  %16 = landingpad { ptr, i32 }
          cleanup
  %17 = extractvalue { ptr, i32 } %16, 0
  store ptr %17, ptr %6, align 8
  %18 = extractvalue { ptr, i32 } %16, 1
  store i32 %18, ptr %7, align 4
  call void @_ZNSaIcED1Ev(ptr noundef nonnull align 1 dereferenceable(1) %5) #3
  br label %19

19:                                               ; preds = %15
  %20 = load ptr, ptr %6, align 8
  %21 = load i32, ptr %7, align 4
  %22 = insertvalue { ptr, i32 } poison, ptr %20, 0
  %23 = insertvalue { ptr, i32 } %22, i32 %21, 1
  resume { ptr, i32 } %23
}

; Function Attrs: mustprogress uwtable
define linkonce_odr noundef zeroext i1 @_ZNK5Yosys5RTLIL8IdString11begins_withEPKc(ptr noundef nonnull align 4 dereferenceable(4) %0, ptr noundef %1) #4 comdat align 2 {
  %3 = alloca i1, align 1
  %4 = alloca ptr, align 8
  %5 = alloca ptr, align 8
  %6 = alloca i64, align 8
  store ptr %0, ptr %4, align 8
  store ptr %1, ptr %5, align 8
  %7 = load ptr, ptr %4, align 8
  %8 = load ptr, ptr %5, align 8
  %9 = call i64 @strlen(ptr noundef %8) #20
  store i64 %9, ptr %6, align 8
  %10 = call noundef i64 @_ZNK5Yosys5RTLIL8IdString4sizeEv(ptr noundef nonnull align 4 dereferenceable(4) %7)
  %11 = load i64, ptr %6, align 8
  %12 = icmp ult i64 %10, %11
  br i1 %12, label %13, label %14

13:                                               ; preds = %2
  store i1 false, ptr %3, align 1
  br label %19

14:                                               ; preds = %2
  %15 = load i64, ptr %6, align 8
  %16 = load ptr, ptr %5, align 8
  %17 = call noundef i32 @_ZNK5Yosys5RTLIL8IdString7compareEmmPKc(ptr noundef nonnull align 4 dereferenceable(4) %7, i64 noundef 0, i64 noundef %15, ptr noundef %16)
  %18 = icmp eq i32 %17, 0
  store i1 %18, ptr %3, align 1
  br label %19

19:                                               ; preds = %14, %13
  %20 = load i1, ptr %3, align 1
  ret i1 %20
}

; Function Attrs: mustprogress uwtable
define internal noundef zeroext i1 @_ZN12_GLOBAL__N_117check_public_nameEN5Yosys5RTLIL8IdStringE(ptr noundef %0) #4 personality ptr @__gxx_personality_v0 {
  %2 = alloca i1, align 1
  %3 = alloca ptr, align 8
  %4 = alloca ptr, align 8
  %5 = alloca %"class.std::__cxx11::basic_string", align 8
  %6 = alloca ptr, align 8
  %7 = alloca i32, align 4
  %8 = alloca i32, align 4
  store ptr %0, ptr %3, align 8
  %9 = call noundef zeroext i1 @_ZNK5Yosys5RTLIL8IdString11begins_withEPKc(ptr noundef nonnull align 4 dereferenceable(4) %0, ptr noundef @.str.182)
  br i1 %9, label %10, label %11

10:                                               ; preds = %1
  store i1 false, ptr %2, align 1
  br label %33

11:                                               ; preds = %1
  call void @_ZNK5Yosys5RTLIL8IdString3strB5cxx11Ev(ptr dead_on_unwind writable sret(%"class.std::__cxx11::basic_string") align 8 %5, ptr noundef nonnull align 4 dereferenceable(4) %0)
  store ptr %5, ptr %4, align 8
  %12 = invoke noundef zeroext i1 @_ZNK5Yosys5RTLIL8IdString11begins_withEPKc(ptr noundef nonnull align 4 dereferenceable(4) %0, ptr noundef @.str.183)
          to label %13 unwind label %22

13:                                               ; preds = %11
  br i1 %12, label %14, label %26

14:                                               ; preds = %13
  %15 = invoke noundef zeroext i1 @_ZNK5Yosys5RTLIL8IdString9ends_withEPKc(ptr noundef nonnull align 4 dereferenceable(4) %0, ptr noundef @.str.184)
          to label %16 unwind label %22

16:                                               ; preds = %14
  br i1 %15, label %21, label %17

17:                                               ; preds = %16
  %18 = load ptr, ptr %4, align 8
  %19 = call noundef i64 @_ZNKSt7__cxx1112basic_stringIcSt11char_traitsIcESaIcEE4findEPKcm(ptr noundef nonnull align 8 dereferenceable(32) %18, ptr noundef @.str.185, i64 noundef 0) #3
  %20 = icmp ne i64 %19, -1
  br i1 %20, label %21, label %26

21:                                               ; preds = %17, %16
  store i1 false, ptr %2, align 1
  store i32 1, ptr %8, align 4
  br label %32

22:                                               ; preds = %14, %11
  %23 = landingpad { ptr, i32 }
          cleanup
  %24 = extractvalue { ptr, i32 } %23, 0
  store ptr %24, ptr %6, align 8
  %25 = extractvalue { ptr, i32 } %23, 1
  store i32 %25, ptr %7, align 4
  call void @_ZNSt7__cxx1112basic_stringIcSt11char_traitsIcESaIcEED1Ev(ptr noundef nonnull align 8 dereferenceable(32) %5) #3
  br label %35

26:                                               ; preds = %17, %13
  %27 = load ptr, ptr %4, align 8
  %28 = call noundef i64 @_ZNKSt7__cxx1112basic_stringIcSt11char_traitsIcESaIcEE4findEPKcm(ptr noundef nonnull align 8 dereferenceable(32) %27, ptr noundef @.str.186, i64 noundef 0) #3
  %29 = icmp ne i64 %28, -1
  br i1 %29, label %30, label %31

30:                                               ; preds = %26
  store i1 false, ptr %2, align 1
  store i32 1, ptr %8, align 4
  br label %32

31:                                               ; preds = %26
  store i1 true, ptr %2, align 1
  store i32 1, ptr %8, align 4
  br label %32

32:                                               ; preds = %31, %30, %21
  call void @_ZNSt7__cxx1112basic_stringIcSt11char_traitsIcESaIcEED1Ev(ptr noundef nonnull align 8 dereferenceable(32) %5) #3
  br label %33

33:                                               ; preds = %32, %10
  %34 = load i1, ptr %2, align 1
  ret i1 %34

35:                                               ; preds = %22
  %36 = load ptr, ptr %6, align 8
  %37 = load i32, ptr %7, align 4
  %38 = insertvalue { ptr, i32 } poison, ptr %36, 0
  %39 = insertvalue { ptr, i32 } %38, i32 %37, 1
  resume { ptr, i32 } %39
}