; Function Attrs: mustprogress uwtable
define internal fastcc noundef zeroext i1 @_ZN12_GLOBAL__N_117check_public_nameEN5Yosys5RTLIL8IdStringE(ptr nocapture noundef readonly %0) unnamed_addr #6 personality ptr @__gxx_personality_v0 {
  %2 = alloca %"class.std::allocator.13", align 1
  %3 = alloca %"class.std::__cxx11::basic_string", align 8
  %4 = load i32, ptr %0, align 4
  %5 = sext i32 %4 to i64
  %6 = load ptr, ptr getelementptr inbounds (%"class.std::vector.21", ptr @_ZN5Yosys5RTLIL8IdString18global_id_storage_E, i64 0, i32 0, i32 0, i32 0, i32 1), align 8
  %7 = load ptr, ptr @_ZN5Yosys5RTLIL8IdString18global_id_storage_E, align 8
  %8 = ptrtoint ptr %6 to i64
  %9 = ptrtoint ptr %7 to i64
  %10 = sub i64 %8, %9
  %11 = ashr exact i64 %10, 3
  %.not.i.i.i.i.i = icmp ugt i64 %11, %5
  br i1 %.not.i.i.i.i.i, label %_ZNK5Yosys5RTLIL8IdString4sizeEv.exit.i, label %12

12:                                               ; preds = %1
  tail call void (ptr, ...) @_ZSt24__throw_out_of_range_fmtPKcz(ptr noundef nonnull @.str.7, i64 noundef %5, i64 noundef %11) #25
  unreachable

_ZNK5Yosys5RTLIL8IdString4sizeEv.exit.i:          ; preds = %1
  %13 = getelementptr inbounds ptr, ptr %7, i64 %5
  %14 = load ptr, ptr %13, align 8
  %char0 = load i8, ptr %14, align 1
  %cond = icmp eq i8 %char0, 36
  br i1 %cond, label %40, label %_ZNSt6vectorIPcSaIS0_EE2atEm.exit.i

_ZNSt6vectorIPcSaIS0_EE2atEm.exit.i:              ; preds = %_ZNK5Yosys5RTLIL8IdString4sizeEv.exit.i
  call void @llvm.lifetime.start.p0(i64 1, ptr nonnull %2)
  call void @_ZNSaIcEC1Ev(ptr noundef nonnull align 1 dereferenceable(1) %2) #23, !noalias !811
  invoke void @_ZNSt7__cxx1112basic_stringIcSt11char_traitsIcESaIcEEC1EPKcRKS3_(ptr noundef nonnull align 8 dereferenceable(32) %3, ptr noundef nonnull %14, ptr noundef nonnull align 1 dereferenceable(1) %2)
          to label %_ZNK5Yosys5RTLIL8IdString3strB5cxx11Ev.exit unwind label %15

common.resume:                                    ; preds = %36, %15
  %common.resume.op = phi { ptr, i32 } [ %16, %15 ], [ %37, %36 ]
  resume { ptr, i32 } %common.resume.op

15:                                               ; preds = %_ZNSt6vectorIPcSaIS0_EE2atEm.exit.i
  %16 = landingpad { ptr, i32 }
          cleanup
  call void @_ZNSaIcED1Ev(ptr noundef nonnull align 1 dereferenceable(1) %2) #23
  br label %common.resume

_ZNK5Yosys5RTLIL8IdString3strB5cxx11Ev.exit:      ; preds = %_ZNSt6vectorIPcSaIS0_EE2atEm.exit.i
  call void @_ZNSaIcED1Ev(ptr noundef nonnull align 1 dereferenceable(1) %2) #23
  call void @llvm.lifetime.end.p0(i64 1, ptr nonnull %2)
  %17 = load i32, ptr %0, align 4
  %18 = sext i32 %17 to i64
  %19 = load ptr, ptr getelementptr inbounds (%"class.std::vector.21", ptr @_ZN5Yosys5RTLIL8IdString18global_id_storage_E, i64 0, i32 0, i32 0, i32 0, i32 1), align 8
  %20 = load ptr, ptr @_ZN5Yosys5RTLIL8IdString18global_id_storage_E, align 8
  %21 = ptrtoint ptr %19 to i64
  %22 = ptrtoint ptr %20 to i64
  %23 = sub i64 %21, %22
  %24 = ashr exact i64 %23, 3
  %.not.i.i.i.i.i5 = icmp ugt i64 %24, %18
  br i1 %.not.i.i.i.i.i5, label %_ZNK5Yosys5RTLIL8IdString4sizeEv.exit.i6, label %25

25:                                               ; preds = %_ZNK5Yosys5RTLIL8IdString3strB5cxx11Ev.exit
  invoke void (ptr, ...) @_ZSt24__throw_out_of_range_fmtPKcz(ptr noundef nonnull @.str.7, i64 noundef %18, i64 noundef %24) #25
          to label %.noexc unwind label %36

.noexc:                                           ; preds = %25
  unreachable

_ZNK5Yosys5RTLIL8IdString4sizeEv.exit.i6:         ; preds = %_ZNK5Yosys5RTLIL8IdString3strB5cxx11Ev.exit
  %26 = getelementptr inbounds ptr, ptr %20, i64 %18
  %27 = load ptr, ptr %26, align 8
  %28 = call noundef i64 @strlen(ptr noundef nonnull dereferenceable(1) %27) #27
  %29 = icmp ult i64 %28, 2
  br i1 %29, label %_ZNK5Yosys5RTLIL8IdString11begins_withEPKc.exit9.thread, label %_ZNK5Yosys5RTLIL8IdString11begins_withEPKc.exit9

_ZNK5Yosys5RTLIL8IdString11begins_withEPKc.exit9: ; preds = %_ZNK5Yosys5RTLIL8IdString4sizeEv.exit.i6
  %30 = call noundef i32 @strncmp(ptr noundef nonnull dereferenceable(1) %27, ptr noundef nonnull dereferenceable(3) @.str.183, i64 noundef 2) #27
  %31 = icmp eq i32 %30, 0
  br i1 %31, label %_ZNK5Yosys5RTLIL8IdString9ends_withEPKc.exit, label %_ZNK5Yosys5RTLIL8IdString11begins_withEPKc.exit9.thread

_ZNK5Yosys5RTLIL8IdString9ends_withEPKc.exit:     ; preds = %_ZNK5Yosys5RTLIL8IdString11begins_withEPKc.exit9
  %32 = getelementptr i8, ptr %27, i64 %28
  %33 = getelementptr i8, ptr %32, i64 -1
  %lhsc18 = load i8, ptr %33, align 1
  %34 = icmp eq i8 %lhsc18, 95
  br i1 %34, label %39, label %_ZNK5Yosys5RTLIL8IdString9ends_withEPKc.exit.thread

_ZNK5Yosys5RTLIL8IdString9ends_withEPKc.exit.thread: ; preds = %_ZNK5Yosys5RTLIL8IdString9ends_withEPKc.exit
  %35 = call noundef i64 @_ZNKSt7__cxx1112basic_stringIcSt11char_traitsIcESaIcEE4findEPKcm(ptr noundef nonnull align 8 dereferenceable(32) %3, ptr noundef nonnull @.str.185, i64 noundef 0) #23
  %.not = icmp eq i64 %35, -1
  br i1 %.not, label %_ZNK5Yosys5RTLIL8IdString11begins_withEPKc.exit9.thread, label %39

36:                                               ; preds = %25
  %37 = landingpad { ptr, i32 }
          cleanup
  call void @_ZNSt7__cxx1112basic_stringIcSt11char_traitsIcESaIcEED1Ev(ptr noundef nonnull align 8 dereferenceable(32) %3) #23
  br label %common.resume

_ZNK5Yosys5RTLIL8IdString11begins_withEPKc.exit9.thread: ; preds = %_ZNK5Yosys5RTLIL8IdString4sizeEv.exit.i6, %_ZNK5Yosys5RTLIL8IdString9ends_withEPKc.exit.thread, %_ZNK5Yosys5RTLIL8IdString11begins_withEPKc.exit9
  %38 = call noundef i64 @_ZNKSt7__cxx1112basic_stringIcSt11char_traitsIcESaIcEE4findEPKcm(ptr noundef nonnull align 8 dereferenceable(32) %3, ptr noundef nonnull @.str.186, i64 noundef 0) #23
  %.not4 = icmp eq i64 %38, -1
  br label %39

39:                                               ; preds = %_ZNK5Yosys5RTLIL8IdString11begins_withEPKc.exit9.thread, %_ZNK5Yosys5RTLIL8IdString9ends_withEPKc.exit, %_ZNK5Yosys5RTLIL8IdString9ends_withEPKc.exit.thread
  %.0 = phi i1 [ false, %_ZNK5Yosys5RTLIL8IdString9ends_withEPKc.exit.thread ], [ false, %_ZNK5Yosys5RTLIL8IdString9ends_withEPKc.exit ], [ %.not4, %_ZNK5Yosys5RTLIL8IdString11begins_withEPKc.exit9.thread ]
  call void @_ZNSt7__cxx1112basic_stringIcSt11char_traitsIcESaIcEED1Ev(ptr noundef nonnull align 8 dereferenceable(32) %3) #23
  br label %40

40:                                               ; preds = %_ZNK5Yosys5RTLIL8IdString4sizeEv.exit.i, %39
  %.1 = phi i1 [ %.0, %39 ], [ false, %_ZNK5Yosys5RTLIL8IdString4sizeEv.exit.i ]
  ret i1 %.1
}